; Function Attrs: mustprogress uwtable
define dso_local noundef i64 @_ZNK13ArrayVariable13size_in_bytesEv(ptr nocapture noundef nonnull readonly align 8 dereferenceable(288) %0) local_unnamed_addr #3 align 2 {
  %2 = getelementptr inbounds i8, ptr %0, i64 64
  %3 = load ptr, ptr %2, align 8
  %4 = tail call noundef i64 @_ZNK4Type11SizeInBytesEv(ptr noundef nonnull align 8 dereferenceable(136) %3)
  %5 = getelementptr inbounds i8, ptr %0, i64 216
  %6 = getelementptr inbounds i8, ptr %0, i64 224
  %7 = load ptr, ptr %6, align 8
  %8 = load ptr, ptr %5, align 8
  %.not = icmp eq ptr %7, %8
  br i1 %.not, label %._crit_edge, label %.lr.ph.preheader

.lr.ph.preheader:                                 ; preds = %1
  %9 = ptrtoint ptr %7 to i64
  %10 = ptrtoint ptr %8 to i64
  %11 = sub i64 %9, %10
  %12 = ashr exact i64 %11, 2
  %umax = tail call i64 @llvm.umax.i64(i64 %12, i64 1)
  br label %.lr.ph

.lr.ph:                                           ; preds = %.lr.ph.preheader, %.lr.ph
  %.07 = phi i64 [ %17, %.lr.ph ], [ 0, %.lr.ph.preheader ]
  %.056 = phi i64 [ %16, %.lr.ph ], [ %4, %.lr.ph.preheader ]
  %13 = getelementptr inbounds i32, ptr %8, i64 %.07
  %14 = load i32, ptr %13, align 4
  %15 = zext i32 %14 to i64
  %16 = mul i64 %.056, %15
  %17 = add nuw i64 %.07, 1
  %exitcond.not = icmp eq i64 %17, %umax
  br i1 %exitcond.not, label %._crit_edge, label %.lr.ph, !llvm.loop !11

._crit_edge:                                      ; preds = %.lr.ph, %1
  %.05.lcssa = phi i64 [ %4, %1 ], [ %16, %.lr.ph ]
  ret i64 %.05.lcssa
}